; Function Attrs: nofree norecurse nosync nounwind memory(readwrite, inaccessiblemem: none) uwtable
define ptr @Fxu_HeapDoubleGetMax(ptr noundef captures(none) %0) local_unnamed_addr #9 {
  %2 = getelementptr inbounds nuw i8, ptr %0, i64 8
  %3 = load i32, ptr %2, align 8, !tbaa !13
  %4 = icmp eq i32 %3, 0
  br i1 %4, label %Fxu_HeapDoubleMoveDn.exit, label %5

5:                                                ; preds = %1
  %6 = load ptr, ptr %0, align 8, !tbaa !10
  %7 = getelementptr inbounds nuw i8, ptr %6, i64 8
  %8 = load ptr, ptr %7, align 8, !tbaa !11
  %9 = getelementptr inbounds nuw i8, ptr %8, i64 4
  store i32 0, ptr %9, align 4, !tbaa !22
  %10 = add nsw i32 %3, -1
  store i32 %10, ptr %2, align 8, !tbaa !13
  %11 = sext i32 %3 to i64
  %12 = getelementptr inbounds ptr, ptr %6, i64 %11
  %13 = load ptr, ptr %12, align 8, !tbaa !11
  store ptr %13, ptr %7, align 8, !tbaa !11
  %14 = getelementptr inbounds nuw i8, ptr %13, i64 4
  store i32 1, ptr %14, align 4, !tbaa !22
  %.not1.i = icmp slt i32 %3, 3
  br i1 %.not1.i, label %Fxu_HeapDoubleMoveDn.exit, label %.lr.ph.preheader.i

.lr.ph.preheader.i:                               ; preds = %5
  %15 = getelementptr inbounds nuw i8, ptr %13, i64 8
  br label %.lr.ph.i

.lr.ph.i:                                         ; preds = %36, %.lr.ph.preheader.i
  %16 = phi i32 [ %40, %36 ], [ 2, %.lr.ph.preheader.i ]
  %17 = phi i32 [ %39, %36 ], [ 1, %.lr.ph.preheader.i ]
  %.02.i = phi ptr [ %.1.i, %36 ], [ %7, %.lr.ph.preheader.i ]
  %18 = sext i32 %16 to i64
  %19 = getelementptr inbounds ptr, ptr %6, i64 %18
  %.not31.not.i = icmp slt i32 %16, %10
  br i1 %.not31.not.i, label %20, label %30

20:                                               ; preds = %.lr.ph.i
  %21 = or disjoint i32 %16, 1
  %22 = sext i32 %21 to i64
  %23 = getelementptr inbounds ptr, ptr %6, i64 %22
  %24 = load i32, ptr %15, align 8, !tbaa !17
  %25 = load ptr, ptr %19, align 8, !tbaa !11
  %26 = getelementptr inbounds nuw i8, ptr %25, i64 8
  %27 = load i32, ptr %26, align 8, !tbaa !17
  %.not33.i = icmp slt i32 %24, %27
  %.pre.i = load ptr, ptr %23, align 8, !tbaa !11
  %.phi.trans.insert.i = getelementptr inbounds nuw i8, ptr %.pre.i, i64 8
  %.pre6.i = load i32, ptr %.phi.trans.insert.i, align 8, !tbaa !17
  %.not34.i = icmp slt i32 %24, %.pre6.i
  %or.cond.i = select i1 %.not33.i, i1 true, i1 %.not34.i
  br i1 %or.cond.i, label %._crit_edge5.i, label %Fxu_HeapDoubleMoveDn.exit

._crit_edge5.i:                                   ; preds = %20
  %.not35.i = icmp slt i32 %27, %.pre6.i
  br i1 %.not35.i, label %29, label %28

28:                                               ; preds = %._crit_edge5.i
  store ptr %25, ptr %.02.i, align 8, !tbaa !11
  store ptr %13, ptr %19, align 8, !tbaa !11
  br label %36

29:                                               ; preds = %._crit_edge5.i
  store ptr %.pre.i, ptr %.02.i, align 8, !tbaa !11
  store ptr %13, ptr %23, align 8, !tbaa !11
  br label %36

30:                                               ; preds = %.lr.ph.i
  %31 = load i32, ptr %15, align 8, !tbaa !17
  %32 = load ptr, ptr %19, align 8, !tbaa !11
  %33 = getelementptr inbounds nuw i8, ptr %32, i64 8
  %34 = load i32, ptr %33, align 8, !tbaa !17
  %.not32.i = icmp slt i32 %31, %34
  br i1 %.not32.i, label %35, label %Fxu_HeapDoubleMoveDn.exit

35:                                               ; preds = %30
  store ptr %32, ptr %.02.i, align 8, !tbaa !11
  store ptr %13, ptr %19, align 8, !tbaa !11
  br label %36

36:                                               ; preds = %35, %29, %28
  %.1.i = phi ptr [ %19, %28 ], [ %23, %29 ], [ %19, %35 ]
  %37 = load ptr, ptr %.02.i, align 8, !tbaa !11
  %38 = getelementptr inbounds nuw i8, ptr %37, i64 4
  %39 = load i32, ptr %38, align 4, !tbaa !22
  store i32 %17, ptr %38, align 4, !tbaa !22
  store i32 %39, ptr %14, align 4, !tbaa !22
  %40 = shl i32 %39, 1
  %.not.i.not = icmp slt i32 %40, %3
  br i1 %.not.i.not, label %.lr.ph.i, label %Fxu_HeapDoubleMoveDn.exit, !llvm.loop !24

Fxu_HeapDoubleMoveDn.exit:                        ; preds = %36, %30, %20, %5, %1
  %.0 = phi ptr [ null, %1 ], [ %8, %5 ], [ %8, %20 ], [ %8, %30 ], [ %8, %36 ]
  ret ptr %.0
}